(dp0
S'training_loss_record'
p1
cnumpy.core.multiarray
_reconstruct
p2
(cnumpy
ndarray
p3
(I0
tp4
S'b'
p5
tp6
Rp7
(I1
(I2
tp8
cnumpy
dtype
p9
(S'f8'
p10
I0
I1
tp11
Rp12
(I3
S'<'
p13
NNNI-1
I-1
I0
tp14
bI00
S'[&\x8b,\x89\xb0\xfc?\xff\xde:2:$\xfb?'
p15
tp16
bsS'best_val_epoch'
p17
I1
sS'best_val_accuracy'
p18
cnumpy.core.multiarray
scalar
p19
(g12
S'\xca\xf8\xed\xd2\x88j\xd8?'
p20
tp21
Rp22
sS'validation_loss_record'
p23
g2
(g3
(I0
tp24
g5
tp25
Rp26
(I1
(I2
tp27
g12
I00
S'W\xd8\x1c\xa8\xd7\xc8\xfb?\xeeRO&\x8c\xac\xf9?'
p28
tp29
bsS'best_val_loss'
p30
g19
(g12
S'\xeeRO&\x8c\xac\xf9?'
p31
tp32
Rp33
sS'validation_accuracy_record'
p34
g2
(g3
(I0
tp35
g5
tp36
Rp37
(I1
(I2
tp38
g12
I00
S'\xb8K=\x89o\xb0\xd2?\xca\xf8\xed\xd2\x88j\xd8?'
p39
tp40
bs.